; Function Attrs: nounwind uwtable
define void @err_clear_last_constant_time(i32 noundef %0) local_unnamed_addr #0 {
  %2 = tail call ptr @ossl_err_get_state_int()
  %3 = icmp eq ptr %2, null
  br i1 %3, label %16, label %4

4:                                                ; preds = %1
  %5 = getelementptr inbounds nuw i8, ptr %2, i64 896
  %6 = load i32, ptr %5, align 8, !tbaa !26
  %7 = icmp eq i32 %0, 0
  %.neg.i.i.i.i = sext i1 %7 to i32
  %8 = tail call i32 asm "", "=r,0,~{dirflag},~{fpsr},~{flags}"(i32 range(i32 -1, 1) %.neg.i.i.i.i) #13, !srcloc !31
  %9 = xor i32 %.neg.i.i.i.i, -1
  %10 = tail call i32 asm "", "=r,0,~{dirflag},~{fpsr},~{flags}"(i32 range(i32 -1, 1) %9) #13, !srcloc !31
  %11 = and i32 %10, 2
  %12 = sext i32 %6 to i64
  %13 = getelementptr inbounds [16 x i32], ptr %2, i64 0, i64 %12
  %14 = load i32, ptr %13, align 4, !tbaa !3
  %15 = or i32 %14, %11
  store i32 %15, ptr %13, align 4, !tbaa !3
  br label %16

16:                                               ; preds = %1, %4
  ret void
}